; ModuleID = '53/958.c'
source_filename = "53/958.c"
target datalayout = "e-m:e-p270:32:32-p271:32:32-p272:64:64-i64:64-f80:128-n8:16:32:64-S128"
target triple = "x86_64-pc-linux-gnu"

@.str = private unnamed_addr constant [3 x i8] c"%d\00", align 1
@.str.1 = private unnamed_addr constant [4 x i8] c",%d\00", align 1

; Function Attrs: noinline nounwind uwtable
define dso_local void @main() #0 {
  %1 = alloca i32, align 4
  %2 = alloca i32, align 4
  %3 = alloca [300 x i32], align 16
  %4 = alloca [300 x i32], align 16
  %5 = alloca i32, align 4
  %6 = alloca i32, align 4
  %7 = alloca i32, align 4
  %8 = bitcast [300 x i32]* %4 to i8*
  call void @llvm.memset.p0i8.i64(i8* align 16 %8, i8 0, i64 1200, i1 false)
  store i32 1, i32* %5, align 4
  %9 = call i32 (i8*, ...) @__isoc99_scanf(i8* getelementptr inbounds ([3 x i8], [3 x i8]* @.str, i64 0, i64 0), i32* %1)
  store i32 0, i32* %2, align 4
  br label %10

10:                                               ; preds = %19, %0
  %11 = load i32, i32* %2, align 4
  %12 = load i32, i32* %1, align 4
  %13 = icmp slt i32 %11, %12
  br i1 %13, label %14, label %22

14:                                               ; preds = %10
  %15 = load i32, i32* %2, align 4
  %16 = sext i32 %15 to i64
  %17 = getelementptr inbounds [300 x i32], [300 x i32]* %3, i64 0, i64 %16
  %18 = call i32 (i8*, ...) @__isoc99_scanf(i8* getelementptr inbounds ([3 x i8], [3 x i8]* @.str, i64 0, i64 0), i32* %17)
  br label %19

19:                                               ; preds = %14
  %20 = load i32, i32* %2, align 4
  %21 = add nsw i32 %20, 1
  store i32 %21, i32* %2, align 4
  br label %10

22:                                               ; preds = %10
  %23 = getelementptr inbounds [300 x i32], [300 x i32]* %3, i64 0, i64 0
  %24 = load i32, i32* %23, align 16
  %25 = getelementptr inbounds [300 x i32], [300 x i32]* %4, i64 0, i64 0
  store i32 %24, i32* %25, align 16
  store i32 0, i32* %2, align 4
  br label %26

26:                                               ; preds = %64, %22
  %27 = load i32, i32* %2, align 4
  %28 = load i32, i32* %1, align 4
  %29 = icmp slt i32 %27, %28
  br i1 %29, label %30, label %67

30:                                               ; preds = %26
  store i32 0, i32* %6, align 4
  store i32 0, i32* %7, align 4
  br label %31

31:                                               ; preds = %47, %30
  %32 = load i32, i32* %7, align 4
  %33 = load i32, i32* %5, align 4
  %34 = icmp slt i32 %32, %33
  br i1 %34, label %35, label %50

35:                                               ; preds = %31
  %36 = load i32, i32* %2, align 4
  %37 = sext i32 %36 to i64
  %38 = getelementptr inbounds [300 x i32], [300 x i32]* %3, i64 0, i64 %37
  %39 = load i32, i32* %38, align 4
  %40 = load i32, i32* %7, align 4
  %41 = sext i32 %40 to i64
  %42 = getelementptr inbounds [300 x i32], [300 x i32]* %4, i64 0, i64 %41
  %43 = load i32, i32* %42, align 4
  %44 = icmp eq i32 %39, %43
  br i1 %44, label %45, label %46

45:                                               ; preds = %35
  store i32 1, i32* %6, align 4
  br label %50

46:                                               ; preds = %35
  br label %47

47:                                               ; preds = %46
  %48 = load i32, i32* %7, align 4
  %49 = add nsw i32 %48, 1
  store i32 %49, i32* %7, align 4
  br label %31

50:                                               ; preds = %45, %31
  %51 = load i32, i32* %6, align 4
  %52 = icmp eq i32 %51, 0
  br i1 %52, label %53, label %63

53:                                               ; preds = %50
  %54 = load i32, i32* %2, align 4
  %55 = sext i32 %54 to i64
  %56 = getelementptr inbounds [300 x i32], [300 x i32]* %3, i64 0, i64 %55
  %57 = load i32, i32* %56, align 4
  %58 = load i32, i32* %5, align 4
  %59 = sext i32 %58 to i64
  %60 = getelementptr inbounds [300 x i32], [300 x i32]* %4, i64 0, i64 %59
  store i32 %57, i32* %60, align 4
  %61 = load i32, i32* %5, align 4
  %62 = add nsw i32 %61, 1
  store i32 %62, i32* %5, align 4
  br label %63

63:                                               ; preds = %53, %50
  br label %64

64:                                               ; preds = %63
  %65 = load i32, i32* %2, align 4
  %66 = add nsw i32 %65, 1
  store i32 %66, i32* %2, align 4
  br label %26

67:                                               ; preds = %26
  %68 = load i32, i32* %5, align 4
  %69 = icmp eq i32 %68, 1
  br i1 %69, label %70, label %74

70:                                               ; preds = %67
  %71 = getelementptr inbounds [300 x i32], [300 x i32]* %4, i64 0, i64 0
  %72 = load i32, i32* %71, align 16
  %73 = call i32 (i8*, ...) @printf(i8* getelementptr inbounds ([3 x i8], [3 x i8]* @.str, i64 0, i64 0), i32 %72)
  br label %92

74:                                               ; preds = %67
  %75 = getelementptr inbounds [300 x i32], [300 x i32]* %4, i64 0, i64 0
  %76 = load i32, i32* %75, align 16
  %77 = call i32 (i8*, ...) @printf(i8* getelementptr inbounds ([3 x i8], [3 x i8]* @.str, i64 0, i64 0), i32 %76)
  store i32 1, i32* %7, align 4
  br label %78

78:                                               ; preds = %88, %74
  %79 = load i32, i32* %7, align 4
  %80 = load i32, i32* %5, align 4
  %81 = icmp slt i32 %79, %80
  br i1 %81, label %82, label %91

82:                                               ; preds = %78
  %83 = load i32, i32* %7, align 4
  %84 = sext i32 %83 to i64
  %85 = getelementptr inbounds [300 x i32], [300 x i32]* %4, i64 0, i64 %84
  %86 = load i32, i32* %85, align 4
  %87 = call i32 (i8*, ...) @printf(i8* getelementptr inbounds ([4 x i8], [4 x i8]* @.str.1, i64 0, i64 0), i32 %86)
  br label %88

88:                                               ; preds = %82
  %89 = load i32, i32* %7, align 4
  %90 = add nsw i32 %89, 1
  store i32 %90, i32* %7, align 4
  br label %78

91:                                               ; preds = %78
  br label %92

92:                                               ; preds = %91, %70
  ret void
}

; Function Attrs: argmemonly nounwind willreturn
declare void @llvm.memset.p0i8.i64(i8* nocapture writeonly, i8, i64, i1 immarg) #1

declare dso_local i32 @__isoc99_scanf(i8*, ...) #2

declare dso_local i32 @printf(i8*, ...) #2


!llvm.module.flags = !{!0}
!llvm.ident = !{!1}

!0 = !{i32 1, !"wchar_size", i32 4}
!1 = !{!"clang version 10.0.0-4ubuntu1 "}
